target datalayout = "e-m:e-p270:32:32-p271:32:32-p272:64:64-i64:64-i128:128-f80:128-n8:16:32:64-S128"
target triple = "x86_64-pc-linux-gnu"

%struct.Curl_ssl = type { %struct.curl_ssl_backend, i32, i64, ptr, ptr, ptr, ptr, ptr, ptr, ptr, ptr, ptr, ptr, ptr, ptr, ptr, ptr, ptr, ptr, ptr, ptr, ptr, ptr, ptr, ptr, ptr, ptr, ptr }
%struct.curl_ssl_backend = type { i32, ptr }
%struct.curltime = type { i64, i32 }
%struct.Curl_cfilter = type { ptr, ptr, ptr, ptr, i32, i8 }
%struct.ssl_connect_data = type { i32, i32, %struct.ssl_peer, ptr, ptr, %struct.cf_call_data, %struct.curltime, i32, i8 }
%struct.ssl_peer = type { ptr, ptr, ptr, i8 }
%struct.cf_call_data = type { ptr }

@Curl_ssl = dso_local global ptr @Curl_ssl_openssl, align 8

; Function Attrs: nounwind uwtable
define internal void @ssl_cf_adjust_pollset(ptr noundef %0, ptr noundef %1, ptr noundef %2) #0 {
  %4 = alloca ptr, align 8
  %5 = alloca ptr, align 8
  %6 = alloca ptr, align 8
  %7 = alloca %struct.cf_call_data, align 8
  store ptr %0, ptr %4, align 8
  store ptr %1, ptr %5, align 8
  store ptr %2, ptr %6, align 8
  %8 = load ptr, ptr %4, align 8
  %9 = getelementptr inbounds %struct.Curl_cfilter, ptr %8, i32 0, i32 5
  %10 = load i8, ptr %9, align 4
  %11 = and i8 %10, 1
  %12 = zext i8 %11 to i32
  %13 = icmp ne i32 %12, 0
  br i1 %13, label %39, label %14

14:                                               ; preds = %3
  br label %15

15:                                               ; preds = %14
  %16 = load ptr, ptr %4, align 8
  %17 = getelementptr inbounds %struct.Curl_cfilter, ptr %16, i32 0, i32 2
  %18 = load ptr, ptr %17, align 8
  %19 = getelementptr inbounds %struct.ssl_connect_data, ptr %18, i32 0, i32 5
  call void @llvm.memcpy.p0.p0.i64(ptr align 8 %7, ptr align 8 %19, i64 8, i1 false)
  %20 = load ptr, ptr %5, align 8
  %21 = load ptr, ptr %4, align 8
  %22 = getelementptr inbounds %struct.Curl_cfilter, ptr %21, i32 0, i32 2
  %23 = load ptr, ptr %22, align 8
  %24 = getelementptr inbounds %struct.ssl_connect_data, ptr %23, i32 0, i32 5
  %25 = getelementptr inbounds %struct.cf_call_data, ptr %24, i32 0, i32 0
  store ptr %20, ptr %25, align 8
  br label %26

26:                                               ; preds = %15
  %27 = load ptr, ptr @Curl_ssl, align 8
  %28 = getelementptr inbounds %struct.Curl_ssl, ptr %27, i32 0, i32 13
  %29 = load ptr, ptr %28, align 8
  %30 = load ptr, ptr %4, align 8
  %31 = load ptr, ptr %5, align 8
  %32 = load ptr, ptr %6, align 8
  call void %29(ptr noundef %30, ptr noundef %31, ptr noundef %32)
  br label %33

33:                                               ; preds = %26
  %34 = load ptr, ptr %4, align 8
  %35 = getelementptr inbounds %struct.Curl_cfilter, ptr %34, i32 0, i32 2
  %36 = load ptr, ptr %35, align 8
  %37 = getelementptr inbounds %struct.ssl_connect_data, ptr %36, i32 0, i32 5
  call void @llvm.memcpy.p0.p0.i64(ptr align 8 %37, ptr align 8 %7, i64 8, i1 false)
  br label %38

38:                                               ; preds = %33
  br label %39

39:                                               ; preds = %38, %3
  ret void
}