; Function Attrs: nounwind uwtable
define internal void @ssl_cf_adjust_pollset(ptr noundef %0, ptr noundef %1, ptr noundef %2) #2 {
  %4 = getelementptr inbounds nuw i8, ptr %0, i64 36
  %5 = load i8, ptr %4, align 4
  %6 = and i8 %5, 1
  %.not = icmp eq i8 %6, 0
  br i1 %.not, label %7, label %16

7:                                                ; preds = %3
  %8 = getelementptr inbounds nuw i8, ptr %0, i64 16
  %9 = load ptr, ptr %8, align 8
  %10 = getelementptr inbounds nuw i8, ptr %9, i64 56
  %.sroa.0.0.copyload = load ptr, ptr %10, align 8
  store ptr %1, ptr %10, align 8
  %11 = load ptr, ptr @Curl_ssl, align 8
  %12 = getelementptr inbounds nuw i8, ptr %11, i64 112
  %13 = load ptr, ptr %12, align 8
  tail call void %13(ptr noundef nonnull %0, ptr noundef %1, ptr noundef %2) #18
  %14 = load ptr, ptr %8, align 8
  %15 = getelementptr inbounds nuw i8, ptr %14, i64 56
  store ptr %.sroa.0.0.copyload, ptr %15, align 8
  br label %16

16:                                               ; preds = %7, %3
  ret void
}